; Function Attrs: nounwind uwtable
define ptr @initialize_Lean_Compiler_IR_EmitUtil(i8 noundef zeroext %0, ptr noundef readnone captures(none) %1) local_unnamed_addr #0 {
  %.b8 = load i1, ptr @_G_initialized, align 1
  br i1 %.b8, label %3, label %7

3:                                                ; preds = %2
  tail call void @lean_inc_heartbeat() #4
  %4 = tail call noalias ptr @mi_malloc_small(i64 noundef 24) #4
  %5 = icmp eq ptr %4, null
  br i1 %5, label %6, label %.sink.split

6:                                                ; preds = %3
  tail call void @lean_internal_panic_out_of_memory() #5
  unreachable

7:                                                ; preds = %2
  store i1 true, ptr @_G_initialized, align 1
  %8 = tail call ptr @initialize_Lean_Compiler_InitAttr(i8 noundef zeroext %0, ptr noundef nonnull inttoptr (i64 1 to ptr)) #4
  %9 = getelementptr i8, ptr %8, i64 4
  %.val = load i32, ptr %9, align 4
  %.mask.i = and i32 %.val, -16777216
  %10 = icmp eq i32 %.mask.i, 16777216
  br i1 %10, label %51, label %11

11:                                               ; preds = %7
  %12 = load i32, ptr %8, align 4, !tbaa !9
  %13 = icmp sgt i32 %12, 1
  br i1 %13, label %14, label %16, !prof !12

14:                                               ; preds = %11
  %15 = add nsw i32 %12, -1
  store i32 %15, ptr %8, align 4, !tbaa !9
  br label %lean_dec_ref.exit10

16:                                               ; preds = %11
  %.not.i9 = icmp eq i32 %12, 0
  br i1 %.not.i9, label %lean_dec_ref.exit10, label %17

17:                                               ; preds = %16
  tail call void @lean_dec_ref_cold(ptr noundef nonnull %8) #4
  br label %lean_dec_ref.exit10

lean_dec_ref.exit10:                              ; preds = %14, %16, %17
  %18 = tail call ptr @initialize_Lean_Compiler_IR_CompilerM(i8 noundef zeroext %0, ptr noundef nonnull inttoptr (i64 1 to ptr)) #4
  %19 = getelementptr i8, ptr %18, i64 4
  %.val11 = load i32, ptr %19, align 4
  %.mask.i12 = and i32 %.val11, -16777216
  %20 = icmp eq i32 %.mask.i12, 16777216
  br i1 %20, label %51, label %21

21:                                               ; preds = %lean_dec_ref.exit10
  %22 = load i32, ptr %18, align 4, !tbaa !9
  %23 = icmp sgt i32 %22, 1
  br i1 %23, label %24, label %26, !prof !12

24:                                               ; preds = %21
  %25 = add nsw i32 %22, -1
  store i32 %25, ptr %18, align 4, !tbaa !9
  br label %lean_dec_ref.exit

26:                                               ; preds = %21
  %.not.i = icmp eq i32 %22, 0
  br i1 %.not.i, label %lean_dec_ref.exit, label %27

27:                                               ; preds = %26
  tail call void @lean_dec_ref_cold(ptr noundef nonnull %18) #4
  br label %lean_dec_ref.exit

lean_dec_ref.exit:                                ; preds = %24, %26, %27
  %28 = tail call ptr @l_Nat_nextPowerOfTwo_go(ptr noundef nonnull inttoptr (i64 21 to ptr), ptr noundef nonnull inttoptr (i64 3 to ptr), ptr noundef nonnull inttoptr (i64 1 to ptr)) #4
  store ptr %28, ptr @l_Lean_IR_mkVarJPMaps___closed__1, align 8, !tbaa !4
  tail call void @lean_mark_persistent(ptr noundef %28) #4
  %29 = load ptr, ptr @l_Lean_IR_mkVarJPMaps___closed__1, align 8, !tbaa !4
  %30 = tail call ptr @lean_mk_array(ptr noundef %29, ptr noundef nonnull inttoptr (i64 1 to ptr)) #4
  store ptr %30, ptr @l_Lean_IR_mkVarJPMaps___closed__2, align 8, !tbaa !4
  tail call void @lean_mark_persistent(ptr noundef %30) #4
  %31 = load ptr, ptr @l_Lean_IR_mkVarJPMaps___closed__2, align 8, !tbaa !4
  tail call void @lean_inc_heartbeat() #4
  %32 = tail call noalias ptr @mi_malloc_small(i64 noundef 24) #4
  %33 = icmp eq ptr %32, null
  br i1 %33, label %34, label %_init_l_Lean_IR_mkVarJPMaps___closed__3.exit

34:                                               ; preds = %lean_dec_ref.exit
  tail call void @lean_internal_panic_out_of_memory() #5
  unreachable

_init_l_Lean_IR_mkVarJPMaps___closed__3.exit:     ; preds = %lean_dec_ref.exit
  %35 = getelementptr inbounds nuw i8, ptr %32, i64 4
  store i32 1, ptr %32, align 4, !tbaa !9
  store i32 131096, ptr %35, align 4
  %36 = getelementptr inbounds nuw i8, ptr %32, i64 8
  store ptr inttoptr (i64 1 to ptr), ptr %36, align 8, !tbaa !4
  %37 = getelementptr inbounds nuw i8, ptr %32, i64 16
  store ptr %31, ptr %37, align 8, !tbaa !4
  store ptr %32, ptr @l_Lean_IR_mkVarJPMaps___closed__3, align 8, !tbaa !4
  tail call void @lean_mark_persistent(ptr noundef nonnull %32) #4
  %38 = load ptr, ptr @l_Lean_IR_mkVarJPMaps___closed__3, align 8, !tbaa !4
  tail call void @lean_inc_heartbeat() #4
  %39 = tail call noalias ptr @mi_malloc_small(i64 noundef 24) #4
  %40 = icmp eq ptr %39, null
  br i1 %40, label %41, label %_init_l_Lean_IR_mkVarJPMaps___closed__4.exit

41:                                               ; preds = %_init_l_Lean_IR_mkVarJPMaps___closed__3.exit
  tail call void @lean_internal_panic_out_of_memory() #5
  unreachable

_init_l_Lean_IR_mkVarJPMaps___closed__4.exit:     ; preds = %_init_l_Lean_IR_mkVarJPMaps___closed__3.exit
  %42 = getelementptr inbounds nuw i8, ptr %39, i64 4
  store i32 1, ptr %39, align 4, !tbaa !9
  store i32 131096, ptr %42, align 4
  %43 = getelementptr inbounds nuw i8, ptr %39, i64 8
  store ptr %38, ptr %43, align 8, !tbaa !4
  %44 = getelementptr inbounds nuw i8, ptr %39, i64 16
  store ptr %38, ptr %44, align 8, !tbaa !4
  store ptr %39, ptr @l_Lean_IR_mkVarJPMaps___closed__4, align 8, !tbaa !4
  tail call void @lean_mark_persistent(ptr noundef nonnull %39) #4
  tail call void @lean_inc_heartbeat() #4
  %45 = tail call noalias ptr @mi_malloc_small(i64 noundef 24) #4
  %46 = icmp eq ptr %45, null
  br i1 %46, label %47, label %.sink.split

47:                                               ; preds = %_init_l_Lean_IR_mkVarJPMaps___closed__4.exit
  tail call void @lean_internal_panic_out_of_memory() #5
  unreachable

.sink.split:                                      ; preds = %_init_l_Lean_IR_mkVarJPMaps___closed__4.exit, %3
  %.sink17 = phi ptr [ %4, %3 ], [ %45, %_init_l_Lean_IR_mkVarJPMaps___closed__4.exit ]
  %48 = getelementptr inbounds nuw i8, ptr %.sink17, i64 4
  store i32 1, ptr %.sink17, align 4, !tbaa !9
  store i32 131096, ptr %48, align 4
  %49 = getelementptr inbounds nuw i8, ptr %.sink17, i64 8
  store ptr inttoptr (i64 1 to ptr), ptr %49, align 8, !tbaa !4
  %50 = getelementptr inbounds nuw i8, ptr %.sink17, i64 16
  store ptr inttoptr (i64 1 to ptr), ptr %50, align 8, !tbaa !4
  br label %51

51:                                               ; preds = %.sink.split, %lean_dec_ref.exit10, %7
  %.0 = phi ptr [ %8, %7 ], [ %18, %lean_dec_ref.exit10 ], [ %.sink17, %.sink.split ]
  ret ptr %.0
}